(dp1
S'model_type'
p2
S'ReLUthreeLayer'
p3
sS'experiment_name'
p4
S'All cytosine motifs classification'
p5
sS'hidden_dim'
p6
(lp7
I100
aI100
asS'sites'
p8
(lp9
(dp10
S'motif_start_position'
p11
(lp12
(lp13
I747
aI354
aI148
aI796
aI289
aI363
aI755
aI626
aI813
aI653
aI525
aI80
aI874
aag13
ag13
asS'title'
p14
S'all_zymo_cytosine'
p15
sas.