(dp1
S'model_type'
p2
S'ReLUthreeLayer'
p3
sS'experiment_name'
p4
S'all null motifs classification'
p5
sS'hidden_dim'
p6
(lp7
I100
aI100
asS'sites'
p8
(lp9
(dp10
S'motif_start_position'
p11
(lp12
(lp13
I62
aI87
aI218
aI295
aI371
aI383
aI457
aI518
aI740
aI785
aI805
aI842
aI866
aag13
ag13
asS'title'
p14
S'all_zymo_null'
p15
sas.