(dp1
S'model_type'
p2
S'ConvNet3'
p3
sS'extra_args'
p4
(dp5
S'data_shape'
p6
(lp7
I3
aI6
asS'n_filters'
p8
(lp9
I10
asS'filter_shape'
p10
(lp11
I1
aI3
asS'poolsize'
p12
(I2
I2
tp13
sS'batch_size'
p14
I10
ssS'experiment_name'
p15
S'All cytosine motifs classification'
p16
sS'hidden_dim'
p17
I100
sS'sites'
p18
(lp19
(dp20
S'motif_start_position'
p21
(lp22
(lp23
I747
aI354
aI148
aI796
aI289
aI363
aI755
aI626
aI813
aI653
aI525
aI80
aI874
aag23
ag23
asS'title'
p24
S'all_zymo_cytosine'
p25
sas.