(dp1
S'model_type'
p2
S'ReLUthreeLayer'
p3
sS'experiment_name'
p4
S'individual cytosine motif classification'
p5
sS'hidden_dim'
p6
(lp7
I50
aI10
asS'sites'
p8
(lp9
(dp10
S'motif_start_position'
p11
(lp12
(lp13
I747
aag13
ag13
asS'title'
p14
S'[747]'
p15
sa(dp16
g11
(lp17
(lp18
I354
aag18
ag18
asg14
S'[354]'
p19
sa(dp20
g11
(lp21
(lp22
I148
aag22
ag22
asg14
S'[148]'
p23
sa(dp24
g11
(lp25
(lp26
I796
aag26
ag26
asg14
S'[796]'
p27
sa(dp28
g11
(lp29
(lp30
I289
aag30
ag30
asg14
S'[289]'
p31
sa(dp32
g11
(lp33
(lp34
I363
aag34
ag34
asg14
S'[363]'
p35
sa(dp36
g11
(lp37
(lp38
I755
aag38
ag38
asg14
S'[755]'
p39
sa(dp40
g11
(lp41
(lp42
I626
aag42
ag42
asg14
S'[626]'
p43
sa(dp44
g11
(lp45
(lp46
I813
aag46
ag46
asg14
S'[813]'
p47
sa(dp48
g11
(lp49
(lp50
I653
aag50
ag50
asg14
S'[653]'
p51
sa(dp52
g11
(lp53
(lp54
I525
aag54
ag54
asg14
S'[525]'
p55
sa(dp56
g11
(lp57
(lp58
I80
aag58
ag58
asg14
S'[80]'
p59
sa(dp60
g11
(lp61
(lp62
I874
aag62
ag62
asg14
S'[874]'
p63
sas.